target datalayout = "e-m:e-p270:32:32-p271:32:32-p272:64:64-i64:64-i128:128-f80:128-n8:16:32:64-S128"
target triple = "x86_64-pc-linux-gnu"

%struct.expert_field = type { i32, i32 }

@ei_ppp_opt_len_invalid = internal global %struct.expert_field zeroinitializer, align 4
@hf_ccp_opt_type = internal global i32 0, align 4
@hf_ccp_opt_length = internal global i32 0, align 4
@.str.1006 = private unnamed_addr constant [1 x i8] zeroinitializer, align 1
@.str.1007 = private unnamed_addr constant [2 x i8] c"s\00", align 1
@.str.1295 = private unnamed_addr constant [8 x i8] c"%s (%u)\00", align 1
@.str.1318 = private unnamed_addr constant [50 x i8] c"%s (with option length = %u byte%s; should be %u)\00", align 1

; Function Attrs: null_pointer_is_valid sspstrong uwtable
define internal void @dissect_ccp_opt_type_len(ptr noundef %0, i32 noundef %1, ptr noundef %2, ptr noundef %3) #1 {
  %5 = alloca ptr, align 8
  %6 = alloca i32, align 4
  %7 = alloca ptr, align 8
  %8 = alloca ptr, align 8
  %9 = alloca i8, align 1
  store ptr %0, ptr %5, align 8
  store i32 %1, ptr %6, align 4
  store ptr %2, ptr %7, align 8
  store ptr %3, ptr %8, align 8
  call void @llvm.lifetime.start.p0(i64 1, ptr %9) #6
  %10 = load ptr, ptr %5, align 8
  %11 = load i32, ptr %6, align 4
  %12 = call zeroext i8 @tvb_get_uint8(ptr noundef %10, i32 noundef %11)
  store i8 %12, ptr %9, align 1
  %13 = load ptr, ptr %7, align 8
  %14 = load i32, ptr @hf_ccp_opt_type, align 4
  %15 = load ptr, ptr %5, align 8
  %16 = load i32, ptr %6, align 4
  %17 = load i8, ptr %9, align 1
  %18 = zext i8 %17 to i32
  %19 = load ptr, ptr %8, align 8
  %20 = load i8, ptr %9, align 1
  %21 = zext i8 %20 to i32
  %22 = call ptr (ptr, i32, ptr, i32, i32, i32, ptr, ...) @proto_tree_add_uint_format_value(ptr noundef %13, i32 noundef %14, ptr noundef %15, i32 noundef %16, i32 noundef 1, i32 noundef %18, ptr noundef @.str.1295, ptr noundef %19, i32 noundef %21)
  %23 = load ptr, ptr %7, align 8
  %24 = load i32, ptr @hf_ccp_opt_length, align 4
  %25 = load ptr, ptr %5, align 8
  %26 = load i32, ptr %6, align 4
  %27 = add i32 %26, 1
  %28 = call ptr @proto_tree_add_item(ptr noundef %23, i32 noundef %24, ptr noundef %25, i32 noundef %27, i32 noundef 1, i32 noundef 0)
  call void @llvm.lifetime.end.p0(i64 1, ptr %9) #6
  ret void
}

; Function Attrs: null_pointer_is_valid sspstrong uwtable
define internal zeroext i1 @ppp_option_len_check(ptr noundef %0, ptr noundef %1, ptr noundef %2, i32 noundef %3, i32 noundef %4, i32 noundef %5) #1 {
  %7 = alloca i1, align 1
  %8 = alloca ptr, align 8
  %9 = alloca ptr, align 8
  %10 = alloca ptr, align 8
  %11 = alloca i32, align 4
  %12 = alloca i32, align 4
  %13 = alloca i32, align 4
  store ptr %0, ptr %8, align 8
  store ptr %1, ptr %9, align 8
  store ptr %2, ptr %10, align 8
  store i32 %3, ptr %11, align 4
  store i32 %4, ptr %12, align 4
  store i32 %5, ptr %13, align 4
  %14 = load i32, ptr %12, align 4
  %15 = load i32, ptr %13, align 4
  %16 = icmp ne i32 %14, %15
  br i1 %16, label %17, label %31

17:                                               ; preds = %6
  %18 = load ptr, ptr %8, align 8
  %19 = load ptr, ptr %9, align 8
  %20 = load ptr, ptr %10, align 8
  %21 = load i32, ptr %12, align 4
  %22 = load i32, ptr %11, align 4
  %23 = call ptr @find_protocol_by_id(i32 noundef %22)
  %24 = call ptr @proto_get_protocol_short_name(ptr noundef %23)
  %25 = load i32, ptr %12, align 4
  %26 = load i32, ptr %12, align 4
  %27 = icmp eq i32 %26, 1
  %28 = select i1 %27, ptr @.str.1006, ptr @.str.1007
  %29 = load i32, ptr %13, align 4
  %30 = call ptr (ptr, ptr, ptr, ptr, i32, i32, ptr, ...) @proto_tree_add_expert_format(ptr noundef %18, ptr noundef %19, ptr noundef @ei_ppp_opt_len_invalid, ptr noundef %20, i32 noundef 0, i32 noundef %21, ptr noundef @.str.1318, ptr noundef %24, i32 noundef %25, ptr noundef %28, i32 noundef %29)
  store i1 false, ptr %7, align 1
  br label %32

31:                                               ; preds = %6
  store i1 true, ptr %7, align 1
  br label %32

32:                                               ; preds = %31, %17
  %33 = load i1, ptr %7, align 1
  ret i1 %33
}

; Function Attrs: null_pointer_is_valid sspstrong uwtable
define internal zeroext i1 @dissect_ccp_fixed_opt(ptr noundef %0, ptr noundef %1, ptr noundef %2, i32 noundef %3, i32 noundef %4, i32 noundef %5, ptr noundef %6, ptr noundef %7) #1 {
  %9 = alloca i1, align 1
  %10 = alloca ptr, align 8
  %11 = alloca ptr, align 8
  %12 = alloca ptr, align 8
  %13 = alloca i32, align 4
  %14 = alloca i32, align 4
  %15 = alloca i32, align 4
  %16 = alloca ptr, align 8
  %17 = alloca ptr, align 8
  store ptr %0, ptr %10, align 8
  store ptr %1, ptr %11, align 8
  store ptr %2, ptr %12, align 8
  store i32 %3, ptr %13, align 4
  store i32 %4, ptr %14, align 4
  store i32 %5, ptr %15, align 4
  store ptr %6, ptr %16, align 8
  store ptr %7, ptr %17, align 8
  %18 = load ptr, ptr %12, align 8
  %19 = load ptr, ptr %11, align 8
  %20 = load ptr, ptr %10, align 8
  %21 = load i32, ptr %13, align 4
  %22 = load ptr, ptr %10, align 8
  %23 = call i32 @tvb_reported_length(ptr noundef %22)
  %24 = load i32, ptr %15, align 4
  %25 = call zeroext i1 @ppp_option_len_check(ptr noundef %18, ptr noundef %19, ptr noundef %20, i32 noundef %21, i32 noundef %23, i32 noundef %24)
  br i1 %25, label %27, label %26

26:                                               ; preds = %8
  store i1 false, ptr %9, align 1
  br label %44

27:                                               ; preds = %8
  %28 = load ptr, ptr %12, align 8
  %29 = load i32, ptr %13, align 4
  %30 = load ptr, ptr %10, align 8
  %31 = load i32, ptr %15, align 4
  %32 = call ptr @proto_tree_add_item(ptr noundef %28, i32 noundef %29, ptr noundef %30, i32 noundef 0, i32 noundef %31, i32 noundef 0)
  %33 = load ptr, ptr %17, align 8
  store ptr %32, ptr %33, align 8
  %34 = load ptr, ptr %17, align 8
  %35 = load ptr, ptr %34, align 8
  %36 = load i32, ptr %14, align 4
  %37 = call ptr @proto_item_add_subtree(ptr noundef %35, i32 noundef %36)
  %38 = load ptr, ptr %16, align 8
  store ptr %37, ptr %38, align 8
  %39 = load ptr, ptr %10, align 8
  %40 = load ptr, ptr %16, align 8
  %41 = load ptr, ptr %40, align 8
  %42 = load i32, ptr %13, align 4
  %43 = call ptr @proto_registrar_get_name(i32 noundef %42)
  call void @dissect_ccp_opt_type_len(ptr noundef %39, i32 noundef 0, ptr noundef %41, ptr noundef %43)
  store i1 true, ptr %9, align 1
  br label %44

44:                                               ; preds = %27, %26
  %45 = load i1, ptr %9, align 1
  ret i1 %45
}